target datalayout = "e-m:e-p270:32:32-p271:32:32-p272:64:64-i64:64-i128:128-f80:128-n8:16:32:64-S128"
target triple = "x86_64-pc-linux-gnu"

%class.dtNavMeshQuery = type { ptr, %"struct.dtNavMeshQuery::dtQueryData", ptr, ptr, ptr }
%"struct.dtNavMeshQuery::dtQueryData" = type { i32, ptr, float, i32, i32, [3 x float], [3 x float], ptr, i32, float }
%class.dtFindNearestPolyQuery = type <{ %class.dtPolyQuery, ptr, ptr, float, i32, [3 x float], i8, [3 x i8] }>
%class.dtPolyQuery = type { ptr }

@.str = private unnamed_addr constant [6 x i8] c"m_nav\00", align 1
@.str.1 = private unnamed_addr constant [148 x i8] c"generated/home/dtcxzyw/WorkSpace/Projects/compilers/llvm-opt-benchmark/bench/recastnavigation/recastnavigation/Detour/Source/DetourNavMeshQuery.cpp\00", align 1
@_ZTV11dtPolyQuery = unnamed_addr constant { [5 x ptr] } { [5 x ptr] [ptr null, ptr @_ZTI11dtPolyQuery, ptr @_ZN11dtPolyQueryD1Ev, ptr @_ZN11dtPolyQueryD0Ev, ptr @__cxa_pure_virtual] }, align 8
@_ZTV22dtFindNearestPolyQuery = unnamed_addr constant { [5 x ptr] } { [5 x ptr] [ptr null, ptr @_ZTI22dtFindNearestPolyQuery, ptr @_ZN22dtFindNearestPolyQueryD1Ev, ptr @_ZN22dtFindNearestPolyQueryD0Ev, ptr @_ZN22dtFindNearestPolyQuery7processEPK10dtMeshTilePP6dtPolyPji] }, align 8
@_ZN22dtFindNearestPolyQueryD1Ev = unnamed_addr alias void (ptr), ptr @_ZN22dtFindNearestPolyQueryD2Ev

; Function Attrs: mustprogress nounwind uwtable
define linkonce_odr void @_ZN11dtPolyQueryC2Ev(ptr noundef nonnull align 8 dereferenceable(8) %0) unnamed_addr #0 comdat align 2 {
  %2 = alloca ptr, align 8
  store ptr %0, ptr %2, align 8
  %3 = load ptr, ptr %2, align 8
  store ptr getelementptr inbounds ({ [5 x ptr] }, ptr @_ZTV11dtPolyQuery, i32 0, i32 0, i32 2), ptr %3, align 8
  ret void
}

; Function Attrs: mustprogress nounwind uwtable
define linkonce_odr noundef zeroext i1 @_ZNK22dtFindNearestPolyQuery10isOverPolyEv(ptr noundef nonnull align 8 dereferenceable(45) %0) #0 comdat align 2 {
  %2 = alloca ptr, align 8
  store ptr %0, ptr %2, align 8
  %3 = load ptr, ptr %2, align 8
  %4 = getelementptr inbounds %class.dtFindNearestPolyQuery, ptr %3, i32 0, i32 6
  %5 = load i8, ptr %4, align 4
  %6 = trunc i8 %5 to i1
  ret i1 %6
}

; Function Attrs: mustprogress nounwind uwtable
define linkonce_odr void @_Z7dtVcopyPfPKf(ptr noundef %0, ptr noundef %1) #0 comdat {
  %3 = alloca ptr, align 8
  %4 = alloca ptr, align 8
  store ptr %0, ptr %3, align 8
  store ptr %1, ptr %4, align 8
  %5 = load ptr, ptr %4, align 8
  %6 = getelementptr inbounds float, ptr %5, i64 0
  %7 = load float, ptr %6, align 4
  %8 = load ptr, ptr %3, align 8
  %9 = getelementptr inbounds float, ptr %8, i64 0
  store float %7, ptr %9, align 4
  %10 = load ptr, ptr %4, align 8
  %11 = getelementptr inbounds float, ptr %10, i64 1
  %12 = load float, ptr %11, align 4
  %13 = load ptr, ptr %3, align 8
  %14 = getelementptr inbounds float, ptr %13, i64 1
  store float %12, ptr %14, align 4
  %15 = load ptr, ptr %4, align 8
  %16 = getelementptr inbounds float, ptr %15, i64 2
  %17 = load float, ptr %16, align 4
  %18 = load ptr, ptr %3, align 8
  %19 = getelementptr inbounds float, ptr %18, i64 2
  store float %17, ptr %19, align 4
  ret void
}

; Function Attrs: mustprogress nounwind uwtable
define linkonce_odr noundef ptr @_ZNK22dtFindNearestPolyQuery12nearestPointEv(ptr noundef nonnull align 8 dereferenceable(45) %0) #0 comdat align 2 {
  %2 = alloca ptr, align 8
  store ptr %0, ptr %2, align 8
  %3 = load ptr, ptr %2, align 8
  %4 = getelementptr inbounds %class.dtFindNearestPolyQuery, ptr %3, i32 0, i32 5
  %5 = getelementptr inbounds [3 x float], ptr %4, i64 0, i64 0
  ret ptr %5
}

; Function Attrs: mustprogress nounwind uwtable
define linkonce_odr noundef i32 @_ZNK22dtFindNearestPolyQuery10nearestRefEv(ptr noundef nonnull align 8 dereferenceable(45) %0) #0 comdat align 2 {
  %2 = alloca ptr, align 8
  store ptr %0, ptr %2, align 8
  %3 = load ptr, ptr %2, align 8
  %4 = getelementptr inbounds %class.dtFindNearestPolyQuery, ptr %3, i32 0, i32 4
  %5 = load i32, ptr %4, align 4
  ret i32 %5
}

; Function Attrs: mustprogress nounwind uwtable
define linkonce_odr noundef zeroext i1 @_Z14dtStatusFailedj(i32 noundef %0) #0 comdat {
  %2 = alloca i32, align 4
  store i32 %0, ptr %2, align 4
  %3 = load i32, ptr %2, align 4
  %4 = and i32 %3, -2147483648
  %5 = icmp ne i32 %4, 0
  ret i1 %5
}

; Function Attrs: mustprogress nounwind uwtable
define linkonce_odr void @_ZN22dtFindNearestPolyQueryC2EPK14dtNavMeshQueryPKf(ptr noundef nonnull align 8 dereferenceable(45) %0, ptr noundef %1, ptr noundef %2) unnamed_addr #0 comdat align 2 {
  %4 = alloca ptr, align 8
  %5 = alloca ptr, align 8
  %6 = alloca ptr, align 8
  store ptr %0, ptr %4, align 8
  store ptr %1, ptr %5, align 8
  store ptr %2, ptr %6, align 8
  %7 = load ptr, ptr %4, align 8
  call void @_ZN11dtPolyQueryC2Ev(ptr noundef nonnull align 8 dereferenceable(8) %7) #9
  store ptr getelementptr inbounds ({ [5 x ptr] }, ptr @_ZTV22dtFindNearestPolyQuery, i32 0, i32 0, i32 2), ptr %7, align 8
  %8 = getelementptr inbounds %class.dtFindNearestPolyQuery, ptr %7, i32 0, i32 1
  %9 = load ptr, ptr %5, align 8
  store ptr %9, ptr %8, align 8
  %10 = getelementptr inbounds %class.dtFindNearestPolyQuery, ptr %7, i32 0, i32 2
  %11 = load ptr, ptr %6, align 8
  store ptr %11, ptr %10, align 8
  %12 = getelementptr inbounds %class.dtFindNearestPolyQuery, ptr %7, i32 0, i32 3
  store float 0x47EFFFFFE0000000, ptr %12, align 8
  %13 = getelementptr inbounds %class.dtFindNearestPolyQuery, ptr %7, i32 0, i32 4
  store i32 0, ptr %13, align 4
  %14 = getelementptr inbounds %class.dtFindNearestPolyQuery, ptr %7, i32 0, i32 5
  call void @llvm.memset.p0.i64(ptr align 8 %14, i8 0, i64 12, i1 false)
  %15 = getelementptr inbounds %class.dtFindNearestPolyQuery, ptr %7, i32 0, i32 6
  store i8 0, ptr %15, align 4
  ret void
}

; Function Attrs: mustprogress uwtable
define noundef i32 @_ZNK14dtNavMeshQuery15findNearestPolyEPKfS1_PK13dtQueryFilterPjPfPb(ptr noundef nonnull align 8 dereferenceable(104) %0, ptr noundef %1, ptr noundef %2, ptr noundef %3, ptr noundef %4, ptr noundef %5, ptr noundef %6) #1 align 2 personality ptr @__gxx_personality_v0 {
  %8 = alloca i32, align 4
  %9 = alloca ptr, align 8
  %10 = alloca ptr, align 8
  %11 = alloca ptr, align 8
  %12 = alloca ptr, align 8
  %13 = alloca ptr, align 8
  %14 = alloca ptr, align 8
  %15 = alloca ptr, align 8
  %16 = alloca ptr, align 8
  %17 = alloca %class.dtFindNearestPolyQuery, align 8
  %18 = alloca i32, align 4
  %19 = alloca ptr, align 8
  %20 = alloca i32, align 4
  %21 = alloca i32, align 4
  store ptr %0, ptr %9, align 8
  store ptr %1, ptr %10, align 8
  store ptr %2, ptr %11, align 8
  store ptr %3, ptr %12, align 8
  store ptr %4, ptr %13, align 8
  store ptr %5, ptr %14, align 8
  store ptr %6, ptr %15, align 8
  %22 = load ptr, ptr %9, align 8
  %23 = call noundef ptr @_Z21dtAssertFailGetCustomv()
  store ptr %23, ptr %16, align 8
  %24 = load ptr, ptr %16, align 8
  %25 = icmp eq ptr %24, null
  br i1 %25, label %26, label %27

26:                                               ; preds = %7
  br label %34

27:                                               ; preds = %7
  %28 = getelementptr inbounds %class.dtNavMeshQuery, ptr %22, i32 0, i32 0
  %29 = load ptr, ptr %28, align 8
  %30 = icmp ne ptr %29, null
  br i1 %30, label %33, label %31

31:                                               ; preds = %27
  %32 = load ptr, ptr %16, align 8
  call void %32(ptr noundef @.str, ptr noundef @.str.1, i32 noundef 706)
  br label %33

33:                                               ; preds = %31, %27
  br label %34

34:                                               ; preds = %33, %26
  %35 = load ptr, ptr %13, align 8
  %36 = icmp ne ptr %35, null
  br i1 %36, label %38, label %37

37:                                               ; preds = %34
  store i32 -2147483640, ptr %8, align 4
  br label %79

38:                                               ; preds = %34
  %39 = load ptr, ptr %10, align 8
  call void @_ZN22dtFindNearestPolyQueryC2EPK14dtNavMeshQueryPKf(ptr noundef nonnull align 8 dereferenceable(45) %17, ptr noundef %22, ptr noundef %39)
  %40 = load ptr, ptr %10, align 8
  %41 = load ptr, ptr %11, align 8
  %42 = load ptr, ptr %12, align 8
  %43 = invoke noundef i32 @_ZNK14dtNavMeshQuery13queryPolygonsEPKfS1_PK13dtQueryFilterP11dtPolyQuery(ptr noundef nonnull align 8 dereferenceable(104) %22, ptr noundef %40, ptr noundef %41, ptr noundef %42, ptr noundef %17)
          to label %44 unwind label %50

44:                                               ; preds = %38
  store i32 %43, ptr %18, align 4
  %45 = load i32, ptr %18, align 4
  %46 = invoke noundef zeroext i1 @_Z14dtStatusFailedj(i32 noundef %45)
          to label %47 unwind label %50

47:                                               ; preds = %44
  br i1 %46, label %48, label %54

48:                                               ; preds = %47
  %49 = load i32, ptr %18, align 4
  store i32 %49, ptr %8, align 4
  store i32 1, ptr %21, align 4
  br label %78

50:                                               ; preds = %71, %67, %64, %54, %44, %38
  %51 = landingpad { ptr, i32 }
          cleanup
  %52 = extractvalue { ptr, i32 } %51, 0
  store ptr %52, ptr %19, align 8
  %53 = extractvalue { ptr, i32 } %51, 1
  store i32 %53, ptr %20, align 4
  call void @_ZN22dtFindNearestPolyQueryD1Ev(ptr noundef nonnull align 8 dereferenceable(45) %17) #9
  br label %81

54:                                               ; preds = %47
  %55 = invoke noundef i32 @_ZNK22dtFindNearestPolyQuery10nearestRefEv(ptr noundef nonnull align 8 dereferenceable(45) %17)
          to label %56 unwind label %50

56:                                               ; preds = %54
  %57 = load ptr, ptr %13, align 8
  store i32 %55, ptr %57, align 4
  %58 = load ptr, ptr %14, align 8
  %59 = icmp ne ptr %58, null
  br i1 %59, label %60, label %77

60:                                               ; preds = %56
  %61 = load ptr, ptr %13, align 8
  %62 = load i32, ptr %61, align 4
  %63 = icmp ne i32 %62, 0
  br i1 %63, label %64, label %77

64:                                               ; preds = %60
  %65 = load ptr, ptr %14, align 8
  %66 = invoke noundef ptr @_ZNK22dtFindNearestPolyQuery12nearestPointEv(ptr noundef nonnull align 8 dereferenceable(45) %17)
          to label %67 unwind label %50

67:                                               ; preds = %64
  invoke void @_Z7dtVcopyPfPKf(ptr noundef %65, ptr noundef %66)
          to label %68 unwind label %50

68:                                               ; preds = %67
  %69 = load ptr, ptr %15, align 8
  %70 = icmp ne ptr %69, null
  br i1 %70, label %71, label %76

71:                                               ; preds = %68
  %72 = invoke noundef zeroext i1 @_ZNK22dtFindNearestPolyQuery10isOverPolyEv(ptr noundef nonnull align 8 dereferenceable(45) %17)
          to label %73 unwind label %50

73:                                               ; preds = %71
  %74 = load ptr, ptr %15, align 8
  %75 = zext i1 %72 to i8
  store i8 %75, ptr %74, align 1
  br label %76

76:                                               ; preds = %73, %68
  br label %77

77:                                               ; preds = %76, %60, %56
  store i32 1073741824, ptr %8, align 4
  store i32 1, ptr %21, align 4
  br label %78

78:                                               ; preds = %77, %48
  call void @_ZN22dtFindNearestPolyQueryD1Ev(ptr noundef nonnull align 8 dereferenceable(45) %17) #9
  br label %79

79:                                               ; preds = %78, %37
  %80 = load i32, ptr %8, align 4
  ret i32 %80

81:                                               ; preds = %50
  %82 = load ptr, ptr %19, align 8
  %83 = load i32, ptr %20, align 4
  %84 = insertvalue { ptr, i32 } poison, ptr %82, 0
  %85 = insertvalue { ptr, i32 } %84, i32 %83, 1
  resume { ptr, i32 } %85
}