; Function Attrs: mustprogress uwtable
define noundef i32 @_ZNK14dtNavMeshQuery15findNearestPolyEPKfS1_PK13dtQueryFilterPjPfPb(ptr noundef nonnull align 8 dereferenceable(104) %0, ptr noundef %1, ptr noundef %2, ptr noundef %3, ptr noundef writeonly %4, ptr noundef writeonly %5, ptr noundef writeonly %6) local_unnamed_addr #1 align 2 personality ptr @__gxx_personality_v0 {
  %8 = alloca %class.dtFindNearestPolyQuery, align 8
  %9 = tail call noundef ptr @_Z21dtAssertFailGetCustomv()
  %10 = icmp ne ptr %9, null
  %11 = load ptr, ptr %0, align 8
  %.not = icmp eq ptr %11, null
  %or.cond = select i1 %10, i1 %.not, i1 false
  br i1 %or.cond, label %12, label %13

12:                                               ; preds = %7
  tail call void %9(ptr noundef nonnull @.str, ptr noundef nonnull @.str.1, i32 noundef 706)
  br label %13

13:                                               ; preds = %12, %7
  %.not22 = icmp eq ptr %4, null
  br i1 %.not22, label %37, label %14

14:                                               ; preds = %13
  store ptr getelementptr inbounds ({ [5 x ptr] }, ptr @_ZTV22dtFindNearestPolyQuery, i64 0, i32 0, i64 2), ptr %8, align 8
  %15 = getelementptr inbounds i8, ptr %8, i64 8
  store ptr %0, ptr %15, align 8
  %16 = getelementptr inbounds i8, ptr %8, i64 16
  store ptr %1, ptr %16, align 8
  %17 = getelementptr inbounds i8, ptr %8, i64 24
  store float 0x47EFFFFFE0000000, ptr %17, align 8
  %18 = getelementptr inbounds i8, ptr %8, i64 28
  call void @llvm.memset.p0.i64(ptr noundef nonnull align 4 dereferenceable(17) %18, i8 0, i64 17, i1 false)
  %19 = invoke noundef i32 @_ZNK14dtNavMeshQuery13queryPolygonsEPKfS1_PK13dtQueryFilterP11dtPolyQuery(ptr noundef nonnull align 8 dereferenceable(104) %0, ptr noundef %1, ptr noundef %2, ptr noundef %3, ptr noundef nonnull %8)
          to label %20 unwind label %22, !range !12

20:                                               ; preds = %14
  %21 = icmp slt i32 %19, 0
  br i1 %21, label %36, label %24

22:                                               ; preds = %14
  %23 = landingpad { ptr, i32 }
          cleanup
  call void @_ZN22dtFindNearestPolyQueryD1Ev(ptr noundef nonnull align 8 dereferenceable(45) %8) #20
  resume { ptr, i32 } %23

24:                                               ; preds = %20
  %25 = load i32, ptr %18, align 4
  store i32 %25, ptr %4, align 4
  %.not23 = icmp eq ptr %5, null
  %.not24 = icmp eq i32 %25, 0
  %or.cond26 = or i1 %.not23, %.not24
  br i1 %or.cond26, label %36, label %26

26:                                               ; preds = %24
  %27 = getelementptr inbounds i8, ptr %8, i64 32
  %28 = load <2 x float>, ptr %27, align 8
  store <2 x float> %28, ptr %5, align 4
  %29 = getelementptr inbounds i8, ptr %8, i64 40
  %30 = load float, ptr %29, align 8
  %31 = getelementptr inbounds i8, ptr %5, i64 8
  store float %30, ptr %31, align 4
  %.not25 = icmp eq ptr %6, null
  br i1 %.not25, label %36, label %32

32:                                               ; preds = %26
  %33 = getelementptr inbounds i8, ptr %8, i64 44
  %34 = load i8, ptr %33, align 4
  %35 = and i8 %34, 1
  store i8 %35, ptr %6, align 1
  br label %36

36:                                               ; preds = %24, %32, %26, %20
  %.0 = phi i32 [ %19, %20 ], [ 1073741824, %26 ], [ 1073741824, %32 ], [ 1073741824, %24 ]
  call void @_ZN22dtFindNearestPolyQueryD1Ev(ptr noundef nonnull align 8 dereferenceable(45) %8) #20
  br label %37

37:                                               ; preds = %13, %36
  %.1 = phi i32 [ %.0, %36 ], [ -2147483640, %13 ]
  ret i32 %.1
}